target datalayout = "e-m:e-p270:32:32-p271:32:32-p272:64:64-i64:64-i128:128-f80:128-n8:16:32:64-S128"
target triple = "x86_64-pc-linux-gnu"

; Function Attrs: nounwind uwtable
define double @Cudd_bddCorrelation(ptr noundef %0, ptr noundef %1, ptr noundef %2) #0 {
  %4 = alloca double, align 8
  %5 = alloca ptr, align 8
  %6 = alloca ptr, align 8
  %7 = alloca ptr, align 8
  %8 = alloca ptr, align 8
  %9 = alloca double, align 8
  store ptr %0, ptr %5, align 8
  store ptr %1, ptr %6, align 8
  store ptr %2, ptr %7, align 8
  %10 = call ptr @st__init_table(ptr noundef @CorrelCompare, ptr noundef @CorrelHash)
  store ptr %10, ptr %8, align 8
  %11 = load ptr, ptr %8, align 8
  %12 = icmp eq ptr %11, null
  br i1 %12, label %13, label %14

13:                                               ; preds = %3
  store double -1.000000e+00, ptr %4, align 8
  br label %24

14:                                               ; preds = %3
  %15 = load ptr, ptr %5, align 8
  %16 = load ptr, ptr %6, align 8
  %17 = load ptr, ptr %7, align 8
  %18 = load ptr, ptr %8, align 8
  %19 = call double @bddCorrelationAux(ptr noundef %15, ptr noundef %16, ptr noundef %17, ptr noundef %18)
  store double %19, ptr %9, align 8
  %20 = load ptr, ptr %8, align 8
  %21 = call i32 @st__foreach(ptr noundef %20, ptr noundef @CorrelCleanUp, ptr noundef null)
  %22 = load ptr, ptr %8, align 8
  call void @st__free_table(ptr noundef %22)
  %23 = load double, ptr %9, align 8
  store double %23, ptr %4, align 8
  br label %24

24:                                               ; preds = %14, %13
  %25 = load double, ptr %4, align 8
  ret double %25
}