; Function Attrs: nounwind uwtable
define double @Cudd_bddCorrelation(ptr noundef %0, ptr noundef %1, ptr noundef %2) local_unnamed_addr #0 {
  %4 = tail call ptr @st__init_table(ptr noundef nonnull @CorrelCompare, ptr noundef nonnull @CorrelHash) #7
  %5 = icmp eq ptr %4, null
  br i1 %5, label %9, label %6

6:                                                ; preds = %3
  %7 = tail call fastcc double @bddCorrelationAux(ptr noundef %0, ptr noundef %1, ptr noundef %2, ptr noundef %4)
  %8 = tail call i32 @st__foreach(ptr noundef nonnull %4, ptr noundef nonnull @CorrelCleanUp, ptr noundef null) #7
  tail call void @st__free_table(ptr noundef nonnull %4) #7
  br label %9

9:                                                ; preds = %3, %6
  %.0 = phi double [ %7, %6 ], [ -1.000000e+00, %3 ]
  ret double %.0
}